target datalayout = "e-m:e-p270:32:32-p271:32:32-p272:64:64-i64:64-i128:128-f80:128-n8:16:32:64-S128"
target triple = "x86_64-pc-linux-gnu"

%"class.std::__cxx11::basic_string" = type { %"struct.std::__cxx11::basic_string<char>::_Alloc_hider", i64, %union.anon }
%"struct.std::__cxx11::basic_string<char>::_Alloc_hider" = type { ptr }
%union.anon = type { i64, [8 x i8] }
%"struct.Luau::Scope" = type { %"class.std::shared_ptr", %"class.std::vector", %"class.std::unordered_map", ptr, %"class.std::optional", %"struct.Luau::TypeLevel", %"struct.Luau::Location", %"class.std::unordered_map.5", %"class.std::unordered_map.5", %"class.std::unordered_map.24", %"class.std::unordered_map.24", %"class.std::unordered_map.38", %"class.std::unordered_map.52", %"class.Luau::DenseHashSet", %"class.std::unordered_map.69", %"class.std::unordered_map.83", %"class.Luau::DenseHashMap", %"class.Luau::DenseHashMap", %"class.Luau::DenseHashSet", %"class.std::unordered_map.103", %"class.std::unordered_map.69", %"class.std::optional.117" }
%"class.std::shared_ptr" = type { %"class.std::__shared_ptr" }
%"class.std::__shared_ptr" = type { ptr, %"class.std::__shared_count" }
%"class.std::__shared_count" = type { ptr }
%"class.std::vector" = type { %"struct.std::_Vector_base" }
%"struct.std::_Vector_base" = type { %"struct.std::_Vector_base<Luau::NotNull<Luau::Scope>, std::allocator<Luau::NotNull<Luau::Scope>>>::_Vector_impl" }
%"struct.std::_Vector_base<Luau::NotNull<Luau::Scope>, std::allocator<Luau::NotNull<Luau::Scope>>>::_Vector_impl" = type { %"struct.std::_Vector_base<Luau::NotNull<Luau::Scope>, std::allocator<Luau::NotNull<Luau::Scope>>>::_Vector_impl_data" }
%"struct.std::_Vector_base<Luau::NotNull<Luau::Scope>, std::allocator<Luau::NotNull<Luau::Scope>>>::_Vector_impl_data" = type { ptr, ptr, ptr }
%"class.std::unordered_map" = type { %"class.std::_Hashtable" }
%"class.std::_Hashtable" = type { ptr, i64, %"struct.std::__detail::_Hash_node_base", i64, %"struct.std::__detail::_Prime_rehash_policy", ptr }
%"struct.std::__detail::_Hash_node_base" = type { ptr }
%"struct.std::__detail::_Prime_rehash_policy" = type { float, i64 }
%"class.std::optional" = type { %"struct.std::_Optional_base" }
%"struct.std::_Optional_base" = type { %"struct.std::_Optional_payload" }
%"struct.std::_Optional_payload" = type { %"struct.std::_Optional_payload_base.base", [7 x i8] }
%"struct.std::_Optional_payload_base.base" = type <{ %"union.std::_Optional_payload_base<const Luau::TypePackVar *>::_Storage", i8 }>
%"union.std::_Optional_payload_base<const Luau::TypePackVar *>::_Storage" = type { ptr }
%"struct.Luau::TypeLevel" = type { i32, i32 }
%"struct.Luau::Location" = type { %"struct.Luau::Position", %"struct.Luau::Position" }
%"struct.Luau::Position" = type { i32, i32 }
%"class.std::unordered_map.5" = type { %"class.std::_Hashtable.6" }
%"class.std::_Hashtable.6" = type { ptr, i64, %"struct.std::__detail::_Hash_node_base", i64, %"struct.std::__detail::_Prime_rehash_policy", ptr }
%"class.std::unordered_map.24" = type { %"class.std::_Hashtable.25" }
%"class.std::_Hashtable.25" = type { ptr, i64, %"struct.std::__detail::_Hash_node_base", i64, %"struct.std::__detail::_Prime_rehash_policy", ptr }
%"class.std::unordered_map.38" = type { %"class.std::_Hashtable.39" }
%"class.std::_Hashtable.39" = type { ptr, i64, %"struct.std::__detail::_Hash_node_base", i64, %"struct.std::__detail::_Prime_rehash_policy", ptr }
%"class.std::unordered_map.52" = type { %"class.std::_Hashtable.53" }
%"class.std::_Hashtable.53" = type { ptr, i64, %"struct.std::__detail::_Hash_node_base", i64, %"struct.std::__detail::_Prime_rehash_policy", ptr }
%"class.std::unordered_map.83" = type { %"class.std::_Hashtable.84" }
%"class.std::_Hashtable.84" = type { ptr, i64, %"struct.std::__detail::_Hash_node_base", i64, %"struct.std::__detail::_Prime_rehash_policy", ptr }
%"class.Luau::DenseHashMap" = type { %"class.Luau::detail::DenseHashTable.101" }
%"class.Luau::detail::DenseHashTable.101" = type <{ ptr, i64, i64, ptr, [8 x i8] }>
%"class.Luau::DenseHashSet" = type { %"class.Luau::detail::DenseHashTable" }
%"class.Luau::detail::DenseHashTable" = type <{ ptr, i64, i64, %"class.std::__cxx11::basic_string", [8 x i8] }>
%"class.std::unordered_map.103" = type { %"class.std::_Hashtable.104" }
%"class.std::_Hashtable.104" = type { ptr, i64, %"struct.std::__detail::_Hash_node_base", i64, %"struct.std::__detail::_Prime_rehash_policy", ptr }
%"class.std::unordered_map.69" = type { %"class.std::_Hashtable.70" }
%"class.std::_Hashtable.70" = type { ptr, i64, %"struct.std::__detail::_Hash_node_base", i64, %"struct.std::__detail::_Prime_rehash_policy", ptr }
%"class.std::optional.117" = type { %"struct.std::_Optional_base.118" }
%"struct.std::_Optional_base.118" = type { %"struct.std::_Optional_payload.120" }
%"struct.std::_Optional_payload.120" = type { %"struct.std::_Optional_payload.base.129", [7 x i8] }
%"struct.std::_Optional_payload.base.129" = type { %"struct.std::_Optional_payload_base.base.128" }
%"struct.std::_Optional_payload_base.base.128" = type <{ %"union.std::_Optional_payload_base<std::vector<const Luau::Type *>>::_Storage", i8 }>
%"union.std::_Optional_payload_base<std::vector<const Luau::Type *>>::_Storage" = type { %"class.std::vector.123" }
%"class.std::vector.123" = type { %"struct.std::_Vector_base.124" }
%"struct.std::_Vector_base.124" = type { %"struct.std::_Vector_base<const Luau::Type *, std::allocator<const Luau::Type *>>::_Vector_impl" }
%"struct.std::_Vector_base<const Luau::Type *, std::allocator<const Luau::Type *>>::_Vector_impl" = type { %"struct.std::_Vector_base<const Luau::Type *, std::allocator<const Luau::Type *>>::_Vector_impl_data" }
%"struct.std::_Vector_base<const Luau::Type *, std::allocator<const Luau::Type *>>::_Vector_impl_data" = type { ptr, ptr, ptr }
%"struct.Luau::TypeFun" = type { %"class.std::vector.132", %"class.std::vector.137", ptr }
%"class.std::vector.132" = type { %"struct.std::_Vector_base.133" }
%"struct.std::_Vector_base.133" = type { %"struct.std::_Vector_base<Luau::GenericTypeDefinition, std::allocator<Luau::GenericTypeDefinition>>::_Vector_impl" }
%"struct.std::_Vector_base<Luau::GenericTypeDefinition, std::allocator<Luau::GenericTypeDefinition>>::_Vector_impl" = type { %"struct.std::_Vector_base<Luau::GenericTypeDefinition, std::allocator<Luau::GenericTypeDefinition>>::_Vector_impl_data" }
%"struct.std::_Vector_base<Luau::GenericTypeDefinition, std::allocator<Luau::GenericTypeDefinition>>::_Vector_impl_data" = type { ptr, ptr, ptr }
%"class.std::vector.137" = type { %"struct.std::_Vector_base.138" }
%"struct.std::_Vector_base.138" = type { %"struct.std::_Vector_base<Luau::GenericTypePackDefinition, std::allocator<Luau::GenericTypePackDefinition>>::_Vector_impl" }
%"struct.std::_Vector_base<Luau::GenericTypePackDefinition, std::allocator<Luau::GenericTypePackDefinition>>::_Vector_impl" = type { %"struct.std::_Vector_base<Luau::GenericTypePackDefinition, std::allocator<Luau::GenericTypePackDefinition>>::_Vector_impl_data" }
%"struct.std::_Vector_base<Luau::GenericTypePackDefinition, std::allocator<Luau::GenericTypePackDefinition>>::_Vector_impl_data" = type { ptr, ptr, ptr }

; Function Attrs: mustprogress uwtable
define linkonce_odr dso_local void @_ZN4Luau6detail14DenseHashTableINSt7__cxx1112basic_stringIcSt11char_traitsIcESaIcEEES7_S7_NS0_16ItemInterfaceSetIS7_EESt4hashIS7_ESt8equal_toIS7_EE14rehash_if_fullERKS7_(ptr noundef nonnull align 8 dereferenceable(58) %0, ptr noundef nonnull align 8 dereferenceable(32) %1) #2 comdat align 2 {
  %3 = alloca ptr, align 8
  %4 = alloca ptr, align 8
  store ptr %0, ptr %3, align 8, !tbaa !508
  store ptr %1, ptr %4, align 8, !tbaa !101
  %5 = load ptr, ptr %3, align 8
  %6 = getelementptr inbounds nuw %"class.Luau::detail::DenseHashTable", ptr %5, i32 0, i32 2
  %7 = load i64, ptr %6, align 8, !tbaa !725
  %8 = getelementptr inbounds nuw %"class.Luau::detail::DenseHashTable", ptr %5, i32 0, i32 1
  %9 = load i64, ptr %8, align 8, !tbaa !511
  %10 = mul i64 %9, 3
  %11 = udiv i64 %10, 4
  %12 = icmp uge i64 %7, %11
  br i1 %12, label %13, label %18

13:                                               ; preds = %2
  %14 = load ptr, ptr %4, align 8, !tbaa !101
  %15 = call noundef ptr @_ZNK4Luau6detail14DenseHashTableINSt7__cxx1112basic_stringIcSt11char_traitsIcESaIcEEES7_S7_NS0_16ItemInterfaceSetIS7_EESt4hashIS7_ESt8equal_toIS7_EE4findERKS7_(ptr noundef nonnull align 8 dereferenceable(58) %5, ptr noundef nonnull align 8 dereferenceable(32) %14)
  %16 = icmp ne ptr %15, null
  br i1 %16, label %18, label %17

17:                                               ; preds = %13
  call void @_ZN4Luau6detail14DenseHashTableINSt7__cxx1112basic_stringIcSt11char_traitsIcESaIcEEES7_S7_NS0_16ItemInterfaceSetIS7_EESt4hashIS7_ESt8equal_toIS7_EE6rehashEv(ptr noundef nonnull align 8 dereferenceable(58) %5)
  br label %18

18:                                               ; preds = %17, %13, %2
  ret void
}

; Function Attrs: mustprogress uwtable
define linkonce_odr dso_local noundef nonnull align 8 dereferenceable(32) ptr @_ZN4Luau12DenseHashSetINSt7__cxx1112basic_stringIcSt11char_traitsIcESaIcEEESt4hashIS6_ESt8equal_toIS6_EE6insertERKS6_(ptr noundef nonnull align 8 dereferenceable(64) %0, ptr noundef nonnull align 8 dereferenceable(32) %1) #2 comdat align 2 {
  %3 = alloca ptr, align 8
  %4 = alloca ptr, align 8
  store ptr %0, ptr %3, align 8, !tbaa !103
  store ptr %1, ptr %4, align 8, !tbaa !101
  %5 = load ptr, ptr %3, align 8
  %6 = getelementptr inbounds nuw %"class.Luau::DenseHashSet", ptr %5, i32 0, i32 0
  %7 = load ptr, ptr %4, align 8, !tbaa !101
  call void @_ZN4Luau6detail14DenseHashTableINSt7__cxx1112basic_stringIcSt11char_traitsIcESaIcEEES7_S7_NS0_16ItemInterfaceSetIS7_EESt4hashIS7_ESt8equal_toIS7_EE14rehash_if_fullERKS7_(ptr noundef nonnull align 8 dereferenceable(58) %6, ptr noundef nonnull align 8 dereferenceable(32) %7)
  %8 = getelementptr inbounds nuw %"class.Luau::DenseHashSet", ptr %5, i32 0, i32 0
  %9 = load ptr, ptr %4, align 8, !tbaa !101
  %10 = call noundef ptr @_ZN4Luau6detail14DenseHashTableINSt7__cxx1112basic_stringIcSt11char_traitsIcESaIcEEES7_S7_NS0_16ItemInterfaceSetIS7_EESt4hashIS7_ESt8equal_toIS7_EE13insert_unsafeERKS7_(ptr noundef nonnull align 8 dereferenceable(58) %8, ptr noundef nonnull align 8 dereferenceable(32) %9)
  ret ptr %10
}

; Function Attrs: inlinehint mustprogress uwtable
define linkonce_odr dso_local noundef nonnull align 8 dereferenceable(56) ptr @_ZN4Luau7TypeFunaSERKS0_(ptr noundef nonnull align 8 dereferenceable(56) %0, ptr noundef nonnull align 8 dereferenceable(56) %1) #7 comdat align 2 {
  %3 = alloca ptr, align 8
  %4 = alloca ptr, align 8
  store ptr %0, ptr %3, align 8, !tbaa !130
  store ptr %1, ptr %4, align 8, !tbaa !130
  %5 = load ptr, ptr %3, align 8
  %6 = getelementptr inbounds nuw %"struct.Luau::TypeFun", ptr %5, i32 0, i32 0
  %7 = load ptr, ptr %4, align 8, !tbaa !130
  %8 = getelementptr inbounds nuw %"struct.Luau::TypeFun", ptr %7, i32 0, i32 0
  %9 = call noundef nonnull align 8 dereferenceable(24) ptr @_ZNSt6vectorIN4Luau21GenericTypeDefinitionESaIS1_EEaSERKS3_(ptr noundef nonnull align 8 dereferenceable(24) %6, ptr noundef nonnull align 8 dereferenceable(24) %8)
  %10 = getelementptr inbounds nuw %"struct.Luau::TypeFun", ptr %5, i32 0, i32 1
  %11 = load ptr, ptr %4, align 8, !tbaa !130
  %12 = getelementptr inbounds nuw %"struct.Luau::TypeFun", ptr %11, i32 0, i32 1
  %13 = call noundef nonnull align 8 dereferenceable(24) ptr @_ZNSt6vectorIN4Luau25GenericTypePackDefinitionESaIS1_EEaSERKS3_(ptr noundef nonnull align 8 dereferenceable(24) %10, ptr noundef nonnull align 8 dereferenceable(24) %12)
  %14 = load ptr, ptr %4, align 8, !tbaa !130
  %15 = getelementptr inbounds nuw %"struct.Luau::TypeFun", ptr %14, i32 0, i32 2
  %16 = load ptr, ptr %15, align 8, !tbaa !132
  %17 = getelementptr inbounds nuw %"struct.Luau::TypeFun", ptr %5, i32 0, i32 2
  store ptr %16, ptr %17, align 8, !tbaa !132
  ret ptr %5
}

; Function Attrs: mustprogress uwtable
define linkonce_odr dso_local noundef nonnull align 8 dereferenceable(56) ptr @_ZNSt13unordered_mapINSt7__cxx1112basic_stringIcSt11char_traitsIcESaIcEEEN4Luau7TypeFunESt4hashIS5_ESt8equal_toIS5_ESaISt4pairIKS5_S7_EEEixERSD_(ptr noundef nonnull align 8 dereferenceable(56) %0, ptr noundef nonnull align 8 dereferenceable(32) %1) #2 comdat align 2 {
  %3 = alloca ptr, align 8
  %4 = alloca ptr, align 8
  store ptr %0, ptr %3, align 8, !tbaa !91
  store ptr %1, ptr %4, align 8, !tbaa !101
  %5 = load ptr, ptr %3, align 8
  %6 = getelementptr inbounds nuw %"class.std::unordered_map.5", ptr %5, i32 0, i32 0
  %7 = load ptr, ptr %4, align 8, !tbaa !101
  %8 = call noundef nonnull align 8 dereferenceable(56) ptr @_ZNSt8__detail9_Map_baseINSt7__cxx1112basic_stringIcSt11char_traitsIcESaIcEEESt4pairIKS6_N4Luau7TypeFunEESaISB_ENS_10_Select1stESt8equal_toIS6_ESt4hashIS6_ENS_18_Mod_range_hashingENS_20_Default_ranged_hashENS_20_Prime_rehash_policyENS_17_Hashtable_traitsILb1ELb0ELb1EEELb1EEixERS8_(ptr noundef nonnull align 1 dereferenceable(1) %6, ptr noundef nonnull align 8 dereferenceable(32) %7)
  ret ptr %8
}

; Function Attrs: mustprogress uwtable
define dso_local void @_ZN4Luau5Scope21addBuiltinTypeBindingERKNSt7__cxx1112basic_stringIcSt11char_traitsIcESaIcEEERKNS_7TypeFunE(ptr noundef nonnull align 8 dereferenceable(944) %0, ptr noundef nonnull align 8 dereferenceable(32) %1, ptr noundef nonnull align 8 dereferenceable(56) %2) #2 align 2 {
  %4 = alloca ptr, align 8
  %5 = alloca ptr, align 8
  %6 = alloca ptr, align 8
  store ptr %0, ptr %4, align 8, !tbaa !8
  store ptr %1, ptr %5, align 8, !tbaa !101
  store ptr %2, ptr %6, align 8, !tbaa !130
  %7 = load ptr, ptr %4, align 8
  %8 = load ptr, ptr %6, align 8, !tbaa !130
  %9 = getelementptr inbounds nuw %"struct.Luau::Scope", ptr %7, i32 0, i32 7
  %10 = load ptr, ptr %5, align 8, !tbaa !101
  %11 = call noundef nonnull align 8 dereferenceable(56) ptr @_ZNSt13unordered_mapINSt7__cxx1112basic_stringIcSt11char_traitsIcESaIcEEEN4Luau7TypeFunESt4hashIS5_ESt8equal_toIS5_ESaISt4pairIKS5_S7_EEEixERSD_(ptr noundef nonnull align 8 dereferenceable(56) %9, ptr noundef nonnull align 8 dereferenceable(32) %10)
  %12 = call noundef nonnull align 8 dereferenceable(56) ptr @_ZN4Luau7TypeFunaSERKS0_(ptr noundef nonnull align 8 dereferenceable(56) %11, ptr noundef nonnull align 8 dereferenceable(56) %8)
  %13 = getelementptr inbounds nuw %"struct.Luau::Scope", ptr %7, i32 0, i32 13
  %14 = load ptr, ptr %5, align 8, !tbaa !101
  %15 = call noundef nonnull align 8 dereferenceable(32) ptr @_ZN4Luau12DenseHashSetINSt7__cxx1112basic_stringIcSt11char_traitsIcESaIcEEESt4hashIS6_ESt8equal_toIS6_EE6insertERKS6_(ptr noundef nonnull align 8 dereferenceable(64) %13, ptr noundef nonnull align 8 dereferenceable(32) %14)
  ret void
}