; Function Attrs: mustprogress uwtable
define dso_local void @_ZN4Luau5Scope21addBuiltinTypeBindingERKNSt7__cxx1112basic_stringIcSt11char_traitsIcESaIcEEERKNS_7TypeFunE(ptr noundef nonnull align 8 dereferenceable(944) %0, ptr noundef nonnull align 8 dereferenceable(32) %1, ptr noundef nonnull align 8 dereferenceable(56) %2) local_unnamed_addr #6 align 2 {
  %4 = getelementptr inbounds nuw i8, ptr %0, i64 144
  %5 = tail call noundef nonnull align 8 dereferenceable(56) ptr @_ZNSt8__detail9_Map_baseINSt7__cxx1112basic_stringIcSt11char_traitsIcESaIcEEESt4pairIKS6_N4Luau7TypeFunEESaISB_ENS_10_Select1stESt8equal_toIS6_ESt4hashIS6_ENS_18_Mod_range_hashingENS_20_Default_ranged_hashENS_20_Prime_rehash_policyENS_17_Hashtable_traitsILb1ELb0ELb1EEELb1EEixERS8_(ptr noundef nonnull align 8 dereferenceable(56) %4, ptr noundef nonnull align 8 dereferenceable(32) %1)
  %6 = tail call noundef nonnull align 8 dereferenceable(24) ptr @_ZNSt6vectorIN4Luau21GenericTypeDefinitionESaIS1_EEaSERKS3_(ptr noundef nonnull align 8 dereferenceable(56) %5, ptr noundef nonnull align 8 dereferenceable(56) %2)
  %7 = getelementptr inbounds nuw i8, ptr %5, i64 24
  %8 = getelementptr inbounds nuw i8, ptr %2, i64 24
  %9 = tail call noundef nonnull align 8 dereferenceable(24) ptr @_ZNSt6vectorIN4Luau25GenericTypePackDefinitionESaIS1_EEaSERKS3_(ptr noundef nonnull align 8 dereferenceable(24) %7, ptr noundef nonnull align 8 dereferenceable(24) %8)
  %10 = getelementptr inbounds nuw i8, ptr %2, i64 48
  %11 = load ptr, ptr %10, align 8, !tbaa !98
  %12 = getelementptr inbounds nuw i8, ptr %5, i64 48
  store ptr %11, ptr %12, align 8, !tbaa !98
  %13 = getelementptr inbounds nuw i8, ptr %0, i64 480
  %14 = getelementptr inbounds nuw i8, ptr %0, i64 496
  %15 = load i64, ptr %14, align 8, !tbaa !111
  %16 = getelementptr inbounds nuw i8, ptr %0, i64 488
  %17 = load i64, ptr %16, align 8, !tbaa !112
  %18 = mul i64 %17, 3
  %19 = lshr i64 %18, 2
  %.not.i.i = icmp ult i64 %15, %19
  br i1 %.not.i.i, label %_ZN4Luau12DenseHashSetINSt7__cxx1112basic_stringIcSt11char_traitsIcESaIcEEESt4hashIS6_ESt8equal_toIS6_EE6insertERKS6_.exit, label %20

20:                                               ; preds = %3
  %21 = tail call noundef ptr @_ZNK4Luau6detail14DenseHashTableINSt7__cxx1112basic_stringIcSt11char_traitsIcESaIcEEES7_S7_NS0_16ItemInterfaceSetIS7_EESt4hashIS7_ESt8equal_toIS7_EE4findERKS7_(ptr noundef nonnull align 8 dereferenceable(64) %13, ptr noundef nonnull align 8 dereferenceable(32) %1)
  %.not2.i.i = icmp eq ptr %21, null
  br i1 %.not2.i.i, label %22, label %_ZN4Luau12DenseHashSetINSt7__cxx1112basic_stringIcSt11char_traitsIcESaIcEEESt4hashIS6_ESt8equal_toIS6_EE6insertERKS6_.exit

22:                                               ; preds = %20
  tail call void @_ZN4Luau6detail14DenseHashTableINSt7__cxx1112basic_stringIcSt11char_traitsIcESaIcEEES7_S7_NS0_16ItemInterfaceSetIS7_EESt4hashIS7_ESt8equal_toIS7_EE6rehashEv(ptr noundef nonnull align 8 dereferenceable(64) %13)
  br label %_ZN4Luau12DenseHashSetINSt7__cxx1112basic_stringIcSt11char_traitsIcESaIcEEESt4hashIS6_ESt8equal_toIS6_EE6insertERKS6_.exit

_ZN4Luau12DenseHashSetINSt7__cxx1112basic_stringIcSt11char_traitsIcESaIcEEESt4hashIS6_ESt8equal_toIS6_EE6insertERKS6_.exit: ; preds = %3, %20, %22
  %23 = tail call noundef nonnull align 8 dereferenceable(32) ptr @_ZN4Luau6detail14DenseHashTableINSt7__cxx1112basic_stringIcSt11char_traitsIcESaIcEEES7_S7_NS0_16ItemInterfaceSetIS7_EESt4hashIS7_ESt8equal_toIS7_EE13insert_unsafeERKS7_(ptr noundef nonnull align 8 dereferenceable(64) %13, ptr noundef nonnull align 8 dereferenceable(32) %1)
  ret void
}